target datalayout = "e-m:e-p270:32:32-p271:32:32-p272:64:64-i64:64-i128:128-f80:128-n8:16:32:64-S128"
target triple = "x86_64-pc-linux-gnu"

%struct._stmt = type { i32, %union.anon.11, i32, i32, i32, i32 }
%union.anon.11 = type { %struct.anon.12 }
%struct.anon.12 = type { ptr, ptr, ptr, ptr, ptr, ptr, ptr }
%struct.anon.20 = type { ptr, ptr, ptr, i32 }

@PyExc_ValueError = external global ptr, align 8
@.str.13 = private unnamed_addr constant [41 x i8] c"field 'target' is required for AnnAssign\00", align 1
@.str.14 = private unnamed_addr constant [45 x i8] c"field 'annotation' is required for AnnAssign\00", align 1

; Function Attrs: nounwind uwtable
define hidden ptr @_PyAST_AnnAssign(ptr noundef %0, ptr noundef %1, ptr noundef %2, i32 noundef %3, i32 noundef %4, i32 noundef %5, i32 noundef %6, i32 noundef %7, ptr noundef %8) #0 {
  %10 = alloca ptr, align 8
  %11 = alloca ptr, align 8
  %12 = alloca ptr, align 8
  %13 = alloca ptr, align 8
  %14 = alloca i32, align 4
  %15 = alloca i32, align 4
  %16 = alloca i32, align 4
  %17 = alloca i32, align 4
  %18 = alloca i32, align 4
  %19 = alloca ptr, align 8
  %20 = alloca ptr, align 8
  %21 = alloca i32, align 4
  store ptr %0, ptr %11, align 8, !tbaa !34
  store ptr %1, ptr %12, align 8, !tbaa !34
  store ptr %2, ptr %13, align 8, !tbaa !34
  store i32 %3, ptr %14, align 4, !tbaa !38
  store i32 %4, ptr %15, align 4, !tbaa !38
  store i32 %5, ptr %16, align 4, !tbaa !38
  store i32 %6, ptr %17, align 4, !tbaa !38
  store i32 %7, ptr %18, align 4, !tbaa !38
  store ptr %8, ptr %19, align 8, !tbaa !24
  call void @llvm.lifetime.start.p0(i64 8, ptr %20) #8
  %22 = load ptr, ptr %11, align 8, !tbaa !34
  %23 = icmp ne ptr %22, null
  br i1 %23, label %26, label %24

24:                                               ; preds = %9
  %25 = load ptr, ptr @PyExc_ValueError, align 8, !tbaa !13
  call void @PyErr_SetString(ptr noundef %25, ptr noundef @.str.13)
  store ptr null, ptr %10, align 8
  store i32 1, ptr %21, align 4
  br label %69

26:                                               ; preds = %9
  %27 = load ptr, ptr %12, align 8, !tbaa !34
  %28 = icmp ne ptr %27, null
  br i1 %28, label %31, label %29

29:                                               ; preds = %26
  %30 = load ptr, ptr @PyExc_ValueError, align 8, !tbaa !13
  call void @PyErr_SetString(ptr noundef %30, ptr noundef @.str.14)
  store ptr null, ptr %10, align 8
  store i32 1, ptr %21, align 4
  br label %69

31:                                               ; preds = %26
  %32 = load ptr, ptr %19, align 8, !tbaa !24
  %33 = call ptr @_PyArena_Malloc(ptr noundef %32, i64 noundef 80)
  store ptr %33, ptr %20, align 8, !tbaa !39
  %34 = load ptr, ptr %20, align 8, !tbaa !39
  %35 = icmp ne ptr %34, null
  br i1 %35, label %37, label %36

36:                                               ; preds = %31
  store ptr null, ptr %10, align 8
  store i32 1, ptr %21, align 4
  br label %69

37:                                               ; preds = %31
  %38 = load ptr, ptr %20, align 8, !tbaa !39
  %39 = getelementptr inbounds nuw %struct._stmt, ptr %38, i32 0, i32 0
  store i32 9, ptr %39, align 8, !tbaa !41
  %40 = load ptr, ptr %11, align 8, !tbaa !34
  %41 = load ptr, ptr %20, align 8, !tbaa !39
  %42 = getelementptr inbounds nuw %struct._stmt, ptr %41, i32 0, i32 1
  %43 = getelementptr inbounds nuw %struct.anon.20, ptr %42, i32 0, i32 0
  store ptr %40, ptr %43, align 8, !tbaa !21
  %44 = load ptr, ptr %12, align 8, !tbaa !34
  %45 = load ptr, ptr %20, align 8, !tbaa !39
  %46 = getelementptr inbounds nuw %struct._stmt, ptr %45, i32 0, i32 1
  %47 = getelementptr inbounds nuw %struct.anon.20, ptr %46, i32 0, i32 1
  store ptr %44, ptr %47, align 8, !tbaa !21
  %48 = load ptr, ptr %13, align 8, !tbaa !34
  %49 = load ptr, ptr %20, align 8, !tbaa !39
  %50 = getelementptr inbounds nuw %struct._stmt, ptr %49, i32 0, i32 1
  %51 = getelementptr inbounds nuw %struct.anon.20, ptr %50, i32 0, i32 2
  store ptr %48, ptr %51, align 8, !tbaa !21
  %52 = load i32, ptr %14, align 4, !tbaa !38
  %53 = load ptr, ptr %20, align 8, !tbaa !39
  %54 = getelementptr inbounds nuw %struct._stmt, ptr %53, i32 0, i32 1
  %55 = getelementptr inbounds nuw %struct.anon.20, ptr %54, i32 0, i32 3
  store i32 %52, ptr %55, align 8, !tbaa !21
  %56 = load i32, ptr %15, align 4, !tbaa !38
  %57 = load ptr, ptr %20, align 8, !tbaa !39
  %58 = getelementptr inbounds nuw %struct._stmt, ptr %57, i32 0, i32 2
  store i32 %56, ptr %58, align 8, !tbaa !43
  %59 = load i32, ptr %16, align 4, !tbaa !38
  %60 = load ptr, ptr %20, align 8, !tbaa !39
  %61 = getelementptr inbounds nuw %struct._stmt, ptr %60, i32 0, i32 3
  store i32 %59, ptr %61, align 4, !tbaa !44
  %62 = load i32, ptr %17, align 4, !tbaa !38
  %63 = load ptr, ptr %20, align 8, !tbaa !39
  %64 = getelementptr inbounds nuw %struct._stmt, ptr %63, i32 0, i32 4
  store i32 %62, ptr %64, align 8, !tbaa !45
  %65 = load i32, ptr %18, align 4, !tbaa !38
  %66 = load ptr, ptr %20, align 8, !tbaa !39
  %67 = getelementptr inbounds nuw %struct._stmt, ptr %66, i32 0, i32 5
  store i32 %65, ptr %67, align 4, !tbaa !46
  %68 = load ptr, ptr %20, align 8, !tbaa !39
  store ptr %68, ptr %10, align 8
  store i32 1, ptr %21, align 4
  br label %69

69:                                               ; preds = %37, %36, %29, %24
  call void @llvm.lifetime.end.p0(i64 8, ptr %20) #8
  %70 = load ptr, ptr %10, align 8
  ret ptr %70
}