; Function Attrs: nounwind uwtable
define hidden ptr @_PyAST_AnnAssign(ptr noundef %0, ptr noundef %1, ptr noundef %2, i32 noundef %3, i32 noundef %4, i32 noundef %5, i32 noundef %6, i32 noundef %7, ptr noundef %8) local_unnamed_addr #0 {
  %.not = icmp eq ptr %0, null
  br i1 %.not, label %10, label %12

10:                                               ; preds = %9
  %11 = load ptr, ptr @PyExc_ValueError, align 8, !tbaa !4
  tail call void @PyErr_SetString(ptr noundef %11, ptr noundef nonnull @.str.13) #8
  br label %26

12:                                               ; preds = %9
  %.not25 = icmp eq ptr %1, null
  br i1 %.not25, label %13, label %15

13:                                               ; preds = %12
  %14 = load ptr, ptr @PyExc_ValueError, align 8, !tbaa !4
  tail call void @PyErr_SetString(ptr noundef %14, ptr noundef nonnull @.str.14) #8
  br label %26

15:                                               ; preds = %12
  %16 = tail call ptr @_PyArena_Malloc(ptr noundef %8, i64 noundef 80) #8
  %.not26 = icmp eq ptr %16, null
  br i1 %.not26, label %26, label %17

17:                                               ; preds = %15
  store i32 9, ptr %16, align 8, !tbaa !20
  %18 = getelementptr inbounds nuw i8, ptr %16, i64 8
  store ptr %0, ptr %18, align 8, !tbaa !9
  %19 = getelementptr inbounds nuw i8, ptr %16, i64 16
  store ptr %1, ptr %19, align 8, !tbaa !9
  %20 = getelementptr inbounds nuw i8, ptr %16, i64 24
  store ptr %2, ptr %20, align 8, !tbaa !9
  %21 = getelementptr inbounds nuw i8, ptr %16, i64 32
  store i32 %3, ptr %21, align 8, !tbaa !9
  %22 = getelementptr inbounds nuw i8, ptr %16, i64 64
  store i32 %4, ptr %22, align 8, !tbaa !22
  %23 = getelementptr inbounds nuw i8, ptr %16, i64 68
  store i32 %5, ptr %23, align 4, !tbaa !23
  %24 = getelementptr inbounds nuw i8, ptr %16, i64 72
  store i32 %6, ptr %24, align 8, !tbaa !24
  %25 = getelementptr inbounds nuw i8, ptr %16, i64 76
  store i32 %7, ptr %25, align 4, !tbaa !25
  br label %26

26:                                               ; preds = %15, %17, %13, %10
  %.0 = phi ptr [ %16, %17 ], [ null, %13 ], [ null, %10 ], [ null, %15 ]
  ret ptr %.0
}